target datalayout = "e-m:e-p270:32:32-p271:32:32-p272:64:64-i64:64-i128:128-f80:128-n8:16:32:64-S128"
target triple = "x86_64-unknown-linux-gnu"

%"struct.std::__detail::_Hash_node_base" = type { ptr }
%"struct.std::__detail::_Prime_rehash_policy" = type { float, i64 }
%"class.node::inspector::protocol::DispatcherBase::WeakPtr" = type { ptr }
%"class.node::inspector::protocol::DispatcherBase" = type { ptr, ptr, %"class.std::unordered_set" }
%"class.std::unordered_set" = type { %"class.std::_Hashtable.83" }
%"class.std::_Hashtable.83" = type { ptr, i64, %"struct.std::__detail::_Hash_node_base", i64, %"struct.std::__detail::_Prime_rehash_policy", ptr }

; Function Attrs: mustprogress nounwind uwtable
define linkonce_odr dso_local noundef i64 @_ZNSt10_HashtableIPN4node9inspector8protocol14DispatcherBase7WeakPtrES5_SaIS5_ENSt8__detail9_IdentityESt8equal_toIS5_ESt4hashIS5_ENS7_18_Mod_range_hashingENS7_20_Default_ranged_hashENS7_20_Prime_rehash_policyENS7_17_Hashtable_traitsILb0ELb1ELb1EEEE5eraseERKS5_(ptr noundef nonnull align 8 dereferenceable(56) %this, ptr noundef nonnull align 8 dereferenceable(8) %__k) #0 comdat align 2 {
entry:
  %this.addr = alloca ptr, align 8
  %__k.addr = alloca ptr, align 8
  store ptr %this, ptr %this.addr, align 8
  store ptr %__k, ptr %__k.addr, align 8
  %this1 = load ptr, ptr %this.addr, align 8
  %0 = load ptr, ptr %__k.addr, align 8
  %call = call noundef i64 @_ZNSt10_HashtableIPN4node9inspector8protocol14DispatcherBase7WeakPtrES5_SaIS5_ENSt8__detail9_IdentityESt8equal_toIS5_ESt4hashIS5_ENS7_18_Mod_range_hashingENS7_20_Default_ranged_hashENS7_20_Prime_rehash_policyENS7_17_Hashtable_traitsILb0ELb1ELb1EEEE8_M_eraseESt17integral_constantIbLb1EERKS5_(ptr noundef nonnull align 8 dereferenceable(56) %this1, ptr noundef nonnull align 8 dereferenceable(8) %0)
  ret i64 %call
}

; Function Attrs: mustprogress nounwind uwtable
define linkonce_odr dso_local noundef i64 @_ZNSt13unordered_setIPN4node9inspector8protocol14DispatcherBase7WeakPtrESt4hashIS5_ESt8equal_toIS5_ESaIS5_EE5eraseERKS5_(ptr noundef nonnull align 8 dereferenceable(56) %this, ptr noundef nonnull align 8 dereferenceable(8) %__x) #0 comdat align 2 {
entry:
  %this.addr = alloca ptr, align 8
  %__x.addr = alloca ptr, align 8
  store ptr %this, ptr %this.addr, align 8
  store ptr %__x, ptr %__x.addr, align 8
  %this1 = load ptr, ptr %this.addr, align 8
  %_M_h = getelementptr inbounds %"class.std::unordered_set", ptr %this1, i32 0, i32 0
  %0 = load ptr, ptr %__x.addr, align 8
  %call = call noundef i64 @_ZNSt10_HashtableIPN4node9inspector8protocol14DispatcherBase7WeakPtrES5_SaIS5_ENSt8__detail9_IdentityESt8equal_toIS5_ESt4hashIS5_ENS7_18_Mod_range_hashingENS7_20_Default_ranged_hashENS7_20_Prime_rehash_policyENS7_17_Hashtable_traitsILb0ELb1ELb1EEEE5eraseERKS5_(ptr noundef nonnull align 8 dereferenceable(56) %_M_h, ptr noundef nonnull align 8 dereferenceable(8) %0)
  ret i64 %call
}

; Function Attrs: mustprogress nounwind uwtable
define dso_local void @_ZN4node9inspector8protocol14DispatcherBase7WeakPtrD2Ev(ptr noundef nonnull align 8 dereferenceable(8) %this) unnamed_addr #0 align 2 {
entry:
  %this.addr = alloca ptr, align 8
  %ref.tmp = alloca ptr, align 8
  store ptr %this, ptr %this.addr, align 8
  %this1 = load ptr, ptr %this.addr, align 8
  %m_dispatcher = getelementptr inbounds %"class.node::inspector::protocol::DispatcherBase::WeakPtr", ptr %this1, i32 0, i32 0
  %0 = load ptr, ptr %m_dispatcher, align 8
  %tobool = icmp ne ptr %0, null
  br i1 %tobool, label %if.then, label %if.end

if.then:                                          ; preds = %entry
  %m_dispatcher2 = getelementptr inbounds %"class.node::inspector::protocol::DispatcherBase::WeakPtr", ptr %this1, i32 0, i32 0
  %1 = load ptr, ptr %m_dispatcher2, align 8
  %m_weakPtrs = getelementptr inbounds %"class.node::inspector::protocol::DispatcherBase", ptr %1, i32 0, i32 2
  store ptr %this1, ptr %ref.tmp, align 8
  %call = call noundef i64 @_ZNSt13unordered_setIPN4node9inspector8protocol14DispatcherBase7WeakPtrESt4hashIS5_ESt8equal_toIS5_ESaIS5_EE5eraseERKS5_(ptr noundef nonnull align 8 dereferenceable(56) %m_weakPtrs, ptr noundef nonnull align 8 dereferenceable(8) %ref.tmp)
  br label %if.end

if.end:                                           ; preds = %if.then, %entry
  ret void
}