; Function Attrs: mustprogress nounwind uwtable
define dso_local void @_ZN4node9inspector8protocol14DispatcherBase7WeakPtrD2Ev(ptr noundef nonnull align 8 dereferenceable(8) %this) unnamed_addr #1 align 2 {
entry:
  %ref.tmp = alloca ptr, align 8
  %0 = load ptr, ptr %this, align 8
  %tobool.not = icmp eq ptr %0, null
  br i1 %tobool.not, label %if.end, label %if.then

if.then:                                          ; preds = %entry
  %m_weakPtrs = getelementptr inbounds i8, ptr %0, i64 16
  store ptr %this, ptr %ref.tmp, align 8
  %call.i.i = call noundef i64 @_ZNSt10_HashtableIPN4node9inspector8protocol14DispatcherBase7WeakPtrES5_SaIS5_ENSt8__detail9_IdentityESt8equal_toIS5_ESt4hashIS5_ENS7_18_Mod_range_hashingENS7_20_Default_ranged_hashENS7_20_Prime_rehash_policyENS7_17_Hashtable_traitsILb0ELb1ELb1EEEE8_M_eraseESt17integral_constantIbLb1EERKS5_(ptr noundef nonnull align 8 dereferenceable(56) %m_weakPtrs, ptr noundef nonnull align 8 dereferenceable(8) %ref.tmp)
  br label %if.end

if.end:                                           ; preds = %if.then, %entry
  ret void
}